target datalayout = "e-m:e-p270:32:32-p271:32:32-p272:64:64-i64:64-i128:128-f80:128-n8:16:32:64-S128"
target triple = "x86_64-pc-linux-gnu"

%"class.cvc5::internal::StreamFormatScope" = type { ptr, i32, i64 }
%"class.std::ios_base" = type { ptr, i64, i64, i32, i32, i32, ptr, %"struct.std::ios_base::_Words", [8 x %"struct.std::ios_base::_Words"], i32, ptr, %"class.std::locale" }
%"struct.std::ios_base::_Words" = type { ptr, i64 }
%"class.std::locale" = type { ptr }

$_ZNKSt8ios_base5flagsEv = comdat any

$_ZNKSt8ios_base9precisionEv = comdat any

$_ZNSt8ios_base9precisionEl = comdat any

$__clang_call_terminate = comdat any

$_ZNSt8ios_base5flagsESt13_Ios_Fmtflags = comdat any

@_ZN4cvc58internal17StreamFormatScopeC1ERSo = hidden unnamed_addr alias void (ptr, ptr), ptr @_ZN4cvc58internal17StreamFormatScopeC2ERSo
@_ZN4cvc58internal17StreamFormatScopeD1Ev = hidden unnamed_addr alias void (ptr), ptr @_ZN4cvc58internal17StreamFormatScopeD2Ev

; Function Attrs: mustprogress uwtable
define hidden void @_ZN4cvc58internal17StreamFormatScopeC2ERSo(ptr noundef nonnull align 8 dereferenceable(24) %0, ptr noundef nonnull align 8 dereferenceable(8) %1) unnamed_addr #0 align 2 {
  %3 = alloca ptr, align 8
  %4 = alloca ptr, align 8
  store ptr %0, ptr %3, align 8, !tbaa !3
  store ptr %1, ptr %4, align 8, !tbaa !8
  %5 = load ptr, ptr %3, align 8
  %6 = getelementptr inbounds nuw %"class.cvc5::internal::StreamFormatScope", ptr %5, i32 0, i32 0
  %7 = load ptr, ptr %4, align 8, !tbaa !8
  store ptr %7, ptr %6, align 8, !tbaa !8
  %8 = getelementptr inbounds nuw %"class.cvc5::internal::StreamFormatScope", ptr %5, i32 0, i32 1
  %9 = load ptr, ptr %4, align 8, !tbaa !8
  %10 = load ptr, ptr %9, align 8, !tbaa !10
  %11 = getelementptr i8, ptr %10, i64 -24
  %12 = load i64, ptr %11, align 8
  %13 = getelementptr inbounds i8, ptr %9, i64 %12
  %14 = call noundef i32 @_ZNKSt8ios_base5flagsEv(ptr noundef nonnull align 8 dereferenceable(216) %13)
  store i32 %14, ptr %8, align 8, !tbaa !12
  %15 = getelementptr inbounds nuw %"class.cvc5::internal::StreamFormatScope", ptr %5, i32 0, i32 2
  %16 = load ptr, ptr %4, align 8, !tbaa !8
  %17 = load ptr, ptr %16, align 8, !tbaa !10
  %18 = getelementptr i8, ptr %17, i64 -24
  %19 = load i64, ptr %18, align 8
  %20 = getelementptr inbounds i8, ptr %16, i64 %19
  %21 = call noundef i64 @_ZNKSt8ios_base9precisionEv(ptr noundef nonnull align 8 dereferenceable(216) %20)
  store i64 %21, ptr %15, align 8, !tbaa !16
  ret void
}

; Function Attrs: mustprogress nounwind uwtable
define linkonce_odr hidden noundef i32 @_ZNKSt8ios_base5flagsEv(ptr noundef nonnull align 8 dereferenceable(216) %0) #1 comdat align 2 {
  %2 = alloca ptr, align 8
  store ptr %0, ptr %2, align 8, !tbaa !17
  %3 = load ptr, ptr %2, align 8
  %4 = getelementptr inbounds nuw %"class.std::ios_base", ptr %3, i32 0, i32 3
  %5 = load i32, ptr %4, align 8, !tbaa !19
  ret i32 %5
}

; Function Attrs: mustprogress nounwind uwtable
define linkonce_odr hidden noundef i64 @_ZNKSt8ios_base9precisionEv(ptr noundef nonnull align 8 dereferenceable(216) %0) #1 comdat align 2 {
  %2 = alloca ptr, align 8
  store ptr %0, ptr %2, align 8, !tbaa !17
  %3 = load ptr, ptr %2, align 8
  %4 = getelementptr inbounds nuw %"class.std::ios_base", ptr %3, i32 0, i32 1
  %5 = load i64, ptr %4, align 8, !tbaa !28
  ret i64 %5
}

; Function Attrs: mustprogress nounwind uwtable
define hidden void @_ZN4cvc58internal17StreamFormatScopeD2Ev(ptr noundef nonnull align 8 dereferenceable(24) %0) unnamed_addr #1 align 2 personality ptr @__gxx_personality_v0 {
  %2 = alloca ptr, align 8
  store ptr %0, ptr %2, align 8, !tbaa !3
  %3 = load ptr, ptr %2, align 8
  %4 = getelementptr inbounds nuw %"class.cvc5::internal::StreamFormatScope", ptr %3, i32 0, i32 0
  %5 = load ptr, ptr %4, align 8, !tbaa !29
  %6 = load ptr, ptr %5, align 8, !tbaa !10
  %7 = getelementptr i8, ptr %6, i64 -24
  %8 = load i64, ptr %7, align 8
  %9 = getelementptr inbounds i8, ptr %5, i64 %8
  %10 = getelementptr inbounds nuw %"class.cvc5::internal::StreamFormatScope", ptr %3, i32 0, i32 2
  %11 = load i64, ptr %10, align 8, !tbaa !16
  %12 = invoke noundef i64 @_ZNSt8ios_base9precisionEl(ptr noundef nonnull align 8 dereferenceable(216) %9, i64 noundef %11)
          to label %13 unwind label %24

13:                                               ; preds = %1
  %14 = getelementptr inbounds nuw %"class.cvc5::internal::StreamFormatScope", ptr %3, i32 0, i32 0
  %15 = load ptr, ptr %14, align 8, !tbaa !29
  %16 = load ptr, ptr %15, align 8, !tbaa !10
  %17 = getelementptr i8, ptr %16, i64 -24
  %18 = load i64, ptr %17, align 8
  %19 = getelementptr inbounds i8, ptr %15, i64 %18
  %20 = getelementptr inbounds nuw %"class.cvc5::internal::StreamFormatScope", ptr %3, i32 0, i32 1
  %21 = load i32, ptr %20, align 8, !tbaa !12
  %22 = invoke noundef i32 @_ZNSt8ios_base5flagsESt13_Ios_Fmtflags(ptr noundef nonnull align 8 dereferenceable(216) %19, i32 noundef %21)
          to label %23 unwind label %24

23:                                               ; preds = %13
  ret void

24:                                               ; preds = %13, %1
  %25 = landingpad { ptr, i32 }
          catch ptr null
  %26 = extractvalue { ptr, i32 } %25, 0
  call void @__clang_call_terminate(ptr %26) #4
  unreachable
}

; Function Attrs: mustprogress nounwind uwtable
define linkonce_odr hidden noundef i64 @_ZNSt8ios_base9precisionEl(ptr noundef nonnull align 8 dereferenceable(216) %0, i64 noundef %1) #1 comdat align 2 {
  %3 = alloca ptr, align 8
  %4 = alloca i64, align 8
  %5 = alloca i64, align 8
  store ptr %0, ptr %3, align 8, !tbaa !17
  store i64 %1, ptr %4, align 8, !tbaa !30
  %6 = load ptr, ptr %3, align 8
  call void @llvm.lifetime.start.p0(i64 8, ptr %5) #5
  %7 = getelementptr inbounds nuw %"class.std::ios_base", ptr %6, i32 0, i32 1
  %8 = load i64, ptr %7, align 8, !tbaa !28
  store i64 %8, ptr %5, align 8, !tbaa !30
  %9 = load i64, ptr %4, align 8, !tbaa !30
  %10 = getelementptr inbounds nuw %"class.std::ios_base", ptr %6, i32 0, i32 1
  store i64 %9, ptr %10, align 8, !tbaa !28
  %11 = load i64, ptr %5, align 8, !tbaa !30
  call void @llvm.lifetime.end.p0(i64 8, ptr %5) #5
  ret i64 %11
}

declare i32 @__gxx_personality_v0(...)

; Function Attrs: noinline noreturn nounwind uwtable
define linkonce_odr hidden void @__clang_call_terminate(ptr noundef %0) #2 comdat {
  %2 = call ptr @__cxa_begin_catch(ptr %0) #5
  call void @_ZSt9terminatev() #4
  unreachable
}

declare ptr @__cxa_begin_catch(ptr)

declare void @_ZSt9terminatev()

; Function Attrs: mustprogress nounwind uwtable
define linkonce_odr hidden noundef i32 @_ZNSt8ios_base5flagsESt13_Ios_Fmtflags(ptr noundef nonnull align 8 dereferenceable(216) %0, i32 noundef %1) #1 comdat align 2 {
  %3 = alloca ptr, align 8
  %4 = alloca i32, align 4
  %5 = alloca i32, align 4
  store ptr %0, ptr %3, align 8, !tbaa !17
  store i32 %1, ptr %4, align 4, !tbaa !31
  %6 = load ptr, ptr %3, align 8
  call void @llvm.lifetime.start.p0(i64 4, ptr %5) #5
  %7 = getelementptr inbounds nuw %"class.std::ios_base", ptr %6, i32 0, i32 3
  %8 = load i32, ptr %7, align 8, !tbaa !19
  store i32 %8, ptr %5, align 4, !tbaa !31
  %9 = load i32, ptr %4, align 4, !tbaa !31
  %10 = getelementptr inbounds nuw %"class.std::ios_base", ptr %6, i32 0, i32 3
  store i32 %9, ptr %10, align 8, !tbaa !19
  %11 = load i32, ptr %5, align 4, !tbaa !31
  call void @llvm.lifetime.end.p0(i64 4, ptr %5) #5
  ret i32 %11
}

; Function Attrs: nocallback nofree nosync nounwind willreturn memory(argmem: readwrite)
declare void @llvm.lifetime.start.p0(i64 immarg, ptr captures(none)) #3

; Function Attrs: nocallback nofree nosync nounwind willreturn memory(argmem: readwrite)
declare void @llvm.lifetime.end.p0(i64 immarg, ptr captures(none)) #3


!llvm.module.flags = !{!0, !1, !2}

!0 = !{i32 1, !"wchar_size", i32 4}
!1 = !{i32 8, !"PIC Level", i32 2}
!2 = !{i32 7, !"uwtable", i32 2}
!3 = !{!4, !4, i64 0}
!4 = !{!"p1 _ZTSN4cvc58internal17StreamFormatScopeE", !5, i64 0}
!5 = !{!"any pointer", !6, i64 0}
!6 = !{!"omnipotent char", !7, i64 0}
!7 = !{!"Simple C++ TBAA"}
!8 = !{!9, !9, i64 0}
!9 = !{!"p1 _ZTSSo", !5, i64 0}
!10 = !{!11, !11, i64 0}
!11 = !{!"vtable pointer", !7, i64 0}
!12 = !{!13, !14, i64 8}
!13 = !{!"_ZTSN4cvc58internal17StreamFormatScopeE", !9, i64 0, !14, i64 8, !15, i64 16}
!14 = !{!"_ZTSSt13_Ios_Fmtflags", !6, i64 0}
!15 = !{!"long", !6, i64 0}
!16 = !{!13, !15, i64 16}
!17 = !{!18, !18, i64 0}
!18 = !{!"p1 _ZTSSt8ios_base", !5, i64 0}
!19 = !{!20, !14, i64 24}
!20 = !{!"_ZTSSt8ios_base", !15, i64 8, !15, i64 16, !14, i64 24, !21, i64 28, !21, i64 32, !22, i64 40, !23, i64 48, !6, i64 64, !24, i64 192, !25, i64 200, !26, i64 208}
!21 = !{!"_ZTSSt12_Ios_Iostate", !6, i64 0}
!22 = !{!"p1 _ZTSNSt8ios_base14_Callback_listE", !5, i64 0}
!23 = !{!"_ZTSNSt8ios_base6_WordsE", !5, i64 0, !15, i64 8}
!24 = !{!"int", !6, i64 0}
!25 = !{!"p1 _ZTSNSt8ios_base6_WordsE", !5, i64 0}
!26 = !{!"_ZTSSt6locale", !27, i64 0}
!27 = !{!"p1 _ZTSNSt6locale5_ImplE", !5, i64 0}
!28 = !{!20, !15, i64 8}
!29 = !{!13, !9, i64 0}
!30 = !{!15, !15, i64 0}
!31 = !{!14, !14, i64 0}
