; ModuleID = 'bench/cvc5/original/ostream_util.ll'
source_filename = "bench/cvc5/original/ostream_util.ll"
target datalayout = "e-m:e-p270:32:32-p271:32:32-p272:64:64-i64:64-i128:128-f80:128-n8:16:32:64-S128"
target triple = "x86_64-pc-linux-gnu"

@_ZN4cvc58internal17StreamFormatScopeC1ERSo = hidden unnamed_addr alias void (ptr, ptr), ptr @_ZN4cvc58internal17StreamFormatScopeC2ERSo
@_ZN4cvc58internal17StreamFormatScopeD1Ev = hidden unnamed_addr alias void (ptr), ptr @_ZN4cvc58internal17StreamFormatScopeD2Ev

; Function Attrs: mustprogress nofree norecurse nosync nounwind willreturn memory(read, argmem: readwrite, inaccessiblemem: none) uwtable
define hidden void @_ZN4cvc58internal17StreamFormatScopeC2ERSo(ptr noundef nonnull writeonly align 8 captures(none) dereferenceable(24) initializes((0, 12), (16, 24)) %0, ptr noundef nonnull align 8 dereferenceable(8) %1) unnamed_addr #0 align 2 {
  store ptr %1, ptr %0, align 8, !tbaa !3
  %3 = getelementptr inbounds nuw i8, ptr %0, i64 8
  %4 = load ptr, ptr %1, align 8, !tbaa !8
  %5 = getelementptr i8, ptr %4, i64 -24
  %6 = load i64, ptr %5, align 8
  %7 = getelementptr inbounds i8, ptr %1, i64 %6
  %8 = getelementptr inbounds nuw i8, ptr %7, i64 24
  %9 = load i32, ptr %8, align 8, !tbaa !10
  store i32 %9, ptr %3, align 8, !tbaa !21
  %10 = getelementptr inbounds nuw i8, ptr %0, i64 16
  %11 = load i64, ptr %5, align 8
  %12 = getelementptr inbounds i8, ptr %1, i64 %11
  %13 = getelementptr inbounds nuw i8, ptr %12, i64 8
  %14 = load i64, ptr %13, align 8, !tbaa !23
  store i64 %14, ptr %10, align 8, !tbaa !24
  ret void
}

; Function Attrs: mustprogress nofree norecurse nosync nounwind willreturn memory(readwrite, inaccessiblemem: none) uwtable
define hidden void @_ZN4cvc58internal17StreamFormatScopeD2Ev(ptr noundef nonnull readonly align 8 captures(none) dereferenceable(24) %0) unnamed_addr #1 align 2 personality ptr @__gxx_personality_v0 {
  %2 = load ptr, ptr %0, align 8, !tbaa !25
  %3 = load ptr, ptr %2, align 8, !tbaa !8
  %4 = getelementptr i8, ptr %3, i64 -24
  %5 = load i64, ptr %4, align 8
  %6 = getelementptr inbounds i8, ptr %2, i64 %5
  %7 = getelementptr inbounds nuw i8, ptr %0, i64 16
  %8 = load i64, ptr %7, align 8, !tbaa !24
  %9 = getelementptr inbounds nuw i8, ptr %6, i64 8
  store i64 %8, ptr %9, align 8, !tbaa !23
  %10 = load i64, ptr %4, align 8
  %11 = getelementptr inbounds i8, ptr %2, i64 %10
  %12 = getelementptr inbounds nuw i8, ptr %0, i64 8
  %13 = load i32, ptr %12, align 8, !tbaa !21
  %14 = getelementptr inbounds nuw i8, ptr %11, i64 24
  store i32 %13, ptr %14, align 8, !tbaa !10
  ret void
}

declare i32 @__gxx_personality_v0(...)


!llvm.module.flags = !{!0, !1, !2}

!0 = !{i32 1, !"wchar_size", i32 4}
!1 = !{i32 8, !"PIC Level", i32 2}
!2 = !{i32 7, !"uwtable", i32 2}
!3 = !{!4, !4, i64 0}
!4 = !{!"p1 _ZTSSo", !5, i64 0}
!5 = !{!"any pointer", !6, i64 0}
!6 = !{!"omnipotent char", !7, i64 0}
!7 = !{!"Simple C++ TBAA"}
!8 = !{!9, !9, i64 0}
!9 = !{!"vtable pointer", !7, i64 0}
!10 = !{!11, !13, i64 24}
!11 = !{!"_ZTSSt8ios_base", !12, i64 8, !12, i64 16, !13, i64 24, !14, i64 28, !14, i64 32, !15, i64 40, !16, i64 48, !6, i64 64, !17, i64 192, !18, i64 200, !19, i64 208}
!12 = !{!"long", !6, i64 0}
!13 = !{!"_ZTSSt13_Ios_Fmtflags", !6, i64 0}
!14 = !{!"_ZTSSt12_Ios_Iostate", !6, i64 0}
!15 = !{!"p1 _ZTSNSt8ios_base14_Callback_listE", !5, i64 0}
!16 = !{!"_ZTSNSt8ios_base6_WordsE", !5, i64 0, !12, i64 8}
!17 = !{!"int", !6, i64 0}
!18 = !{!"p1 _ZTSNSt8ios_base6_WordsE", !5, i64 0}
!19 = !{!"_ZTSSt6locale", !20, i64 0}
!20 = !{!"p1 _ZTSNSt6locale5_ImplE", !5, i64 0}
!21 = !{!22, !13, i64 8}
!22 = !{!"_ZTSN4cvc58internal17StreamFormatScopeE", !4, i64 0, !13, i64 8, !12, i64 16}
!23 = !{!11, !12, i64 8}
!24 = !{!22, !12, i64 16}
!25 = !{!22, !4, i64 0}
